target datalayout = "e-m:e-p270:32:32-p271:32:32-p272:64:64-i64:64-i128:128-f80:128-n8:16:32:64-S128"
target triple = "x86_64-pc-linux-gnu"

@.str = private unnamed_addr constant [27 x i8] c"hash AM does not use P_NEW\00", align 1
@.str.1 = private unnamed_addr constant [11 x i8] c"hashpage.c\00", align 1
@__func__._hash_getbuf_with_strategy = private unnamed_addr constant [27 x i8] c"_hash_getbuf_with_strategy\00", align 1

; Function Attrs: nounwind uwtable
define dso_local i32 @_hash_getbuf_with_strategy(ptr noundef %0, i32 noundef %1, i32 noundef %2, i32 noundef %3, ptr noundef %4) #0 {
  %6 = alloca ptr, align 8
  %7 = alloca i32, align 4
  %8 = alloca i32, align 4
  %9 = alloca i32, align 4
  %10 = alloca ptr, align 8
  %11 = alloca i32, align 4
  store ptr %0, ptr %6, align 8
  store i32 %1, ptr %7, align 4
  store i32 %2, ptr %8, align 4
  store i32 %3, ptr %9, align 4
  store ptr %4, ptr %10, align 8
  call void @llvm.lifetime.start.p0(i64 4, ptr %11) #9
  %12 = load i32, ptr %7, align 4
  %13 = icmp eq i32 %12, -1
  br i1 %13, label %14, label %25

14:                                               ; preds = %5
  br label %15

15:                                               ; preds = %14
  br i1 true, label %16, label %18

16:                                               ; preds = %15
  %17 = call zeroext i1 @errstart_cold(i32 noundef 21, ptr noundef null) #10
  br i1 %17, label %20, label %22

18:                                               ; preds = %15
  %19 = call zeroext i1 @errstart(i32 noundef 21, ptr noundef null)
  br i1 %19, label %20, label %22

20:                                               ; preds = %18, %16
  %21 = call i32 (ptr, ...) @errmsg_internal(ptr noundef @.str)
  call void @errfinish(ptr noundef @.str.1, i32 noundef 246, ptr noundef @__func__._hash_getbuf_with_strategy)
  br label %22

22:                                               ; preds = %20, %18, %16
  unreachable

23:                                               ; No predecessors!
  br label %24

24:                                               ; preds = %23
  br label %25

25:                                               ; preds = %24, %5
  %26 = load ptr, ptr %6, align 8
  %27 = load i32, ptr %7, align 4
  %28 = load ptr, ptr %10, align 8
  %29 = call i32 @ReadBufferExtended(ptr noundef %26, i32 noundef 0, i32 noundef %27, i32 noundef 0, ptr noundef %28)
  store i32 %29, ptr %11, align 4
  %30 = load i32, ptr %8, align 4
  %31 = icmp ne i32 %30, -1
  br i1 %31, label %32, label %35

32:                                               ; preds = %25
  %33 = load i32, ptr %11, align 4
  %34 = load i32, ptr %8, align 4
  call void @LockBuffer(i32 noundef %33, i32 noundef %34)
  br label %35

35:                                               ; preds = %32, %25
  %36 = load ptr, ptr %6, align 8
  %37 = load i32, ptr %11, align 4
  %38 = load i32, ptr %9, align 4
  call void @_hash_checkpage(ptr noundef %36, i32 noundef %37, i32 noundef %38)
  %39 = load i32, ptr %11, align 4
  call void @llvm.lifetime.end.p0(i64 4, ptr %11) #9
  ret i32 %39
}