; Function Attrs: nounwind uwtable
define dso_local i32 @_hash_getbuf_with_strategy(ptr noundef %0, i32 noundef %1, i32 noundef %2, i32 noundef %3, ptr noundef %4) local_unnamed_addr #0 {
  %6 = icmp eq i32 %1, -1
  br i1 %6, label %7, label %10

7:                                                ; preds = %5
  %8 = tail call zeroext i1 @errstart_cold(i32 noundef 21, ptr noundef null) #9
  tail call void @llvm.assume(i1 %8)
  %9 = tail call i32 (ptr, ...) @errmsg_internal(ptr noundef nonnull @.str) #10
  tail call void @errfinish(ptr noundef nonnull @.str.1, i32 noundef 246, ptr noundef nonnull @__func__._hash_getbuf_with_strategy) #10
  unreachable

10:                                               ; preds = %5
  %11 = tail call i32 @ReadBufferExtended(ptr noundef %0, i32 noundef 0, i32 noundef %1, i32 noundef 0, ptr noundef %4) #10
  %.not = icmp eq i32 %2, -1
  br i1 %.not, label %13, label %12

12:                                               ; preds = %10
  tail call void @LockBuffer(i32 noundef %11, i32 noundef %2) #10
  br label %13

13:                                               ; preds = %12, %10
  tail call void @_hash_checkpage(ptr noundef %0, i32 noundef %11, i32 noundef %3) #10
  ret i32 %11
}